target datalayout = "e-m:e-p270:32:32-p271:32:32-p272:64:64-i64:64-i128:128-f80:128-n8:16:32:64-S128"
target triple = "x86_64-pc-linux-gnu"

%struct.JsonManifestParseContext = type { ptr, ptr, ptr, ptr, ptr, ptr }
%struct.manifest_data = type { i64, ptr, ptr, ptr }
%struct.manifest_wal_range = type { i32, i64, i64, ptr, ptr }

; Function Attrs: nounwind uwtable
define internal void @combinebackup_per_wal_range_cb(ptr noundef %0, i32 noundef %1, i64 noundef %2, i64 noundef %3) #0 {
  %5 = alloca ptr, align 8
  %6 = alloca i32, align 4
  %7 = alloca i64, align 8
  %8 = alloca i64, align 8
  %9 = alloca ptr, align 8
  %10 = alloca ptr, align 8
  store ptr %0, ptr %5, align 8
  store i32 %1, ptr %6, align 4
  store i64 %2, ptr %7, align 8
  store i64 %3, ptr %8, align 8
  call void @llvm.lifetime.start.p0(i64 8, ptr %9) #14
  %11 = load ptr, ptr %5, align 8
  %12 = getelementptr inbounds nuw %struct.JsonManifestParseContext, ptr %11, i32 0, i32 0
  %13 = load ptr, ptr %12, align 8
  store ptr %13, ptr %9, align 8
  call void @llvm.lifetime.start.p0(i64 8, ptr %10) #14
  %14 = call ptr @palloc(i64 noundef 40)
  store ptr %14, ptr %10, align 8
  %15 = load i32, ptr %6, align 4
  %16 = load ptr, ptr %10, align 8
  %17 = getelementptr inbounds nuw %struct.manifest_wal_range, ptr %16, i32 0, i32 0
  store i32 %15, ptr %17, align 8
  %18 = load i64, ptr %7, align 8
  %19 = load ptr, ptr %10, align 8
  %20 = getelementptr inbounds nuw %struct.manifest_wal_range, ptr %19, i32 0, i32 1
  store i64 %18, ptr %20, align 8
  %21 = load i64, ptr %8, align 8
  %22 = load ptr, ptr %10, align 8
  %23 = getelementptr inbounds nuw %struct.manifest_wal_range, ptr %22, i32 0, i32 2
  store i64 %21, ptr %23, align 8
  %24 = load ptr, ptr %9, align 8
  %25 = getelementptr inbounds nuw %struct.manifest_data, ptr %24, i32 0, i32 3
  %26 = load ptr, ptr %25, align 8
  %27 = load ptr, ptr %10, align 8
  %28 = getelementptr inbounds nuw %struct.manifest_wal_range, ptr %27, i32 0, i32 4
  store ptr %26, ptr %28, align 8
  %29 = load ptr, ptr %10, align 8
  %30 = getelementptr inbounds nuw %struct.manifest_wal_range, ptr %29, i32 0, i32 3
  store ptr null, ptr %30, align 8
  %31 = load ptr, ptr %9, align 8
  %32 = getelementptr inbounds nuw %struct.manifest_data, ptr %31, i32 0, i32 2
  %33 = load ptr, ptr %32, align 8
  %34 = icmp eq ptr %33, null
  br i1 %34, label %35, label %39

35:                                               ; preds = %4
  %36 = load ptr, ptr %10, align 8
  %37 = load ptr, ptr %9, align 8
  %38 = getelementptr inbounds nuw %struct.manifest_data, ptr %37, i32 0, i32 2
  store ptr %36, ptr %38, align 8
  br label %45

39:                                               ; preds = %4
  %40 = load ptr, ptr %10, align 8
  %41 = load ptr, ptr %9, align 8
  %42 = getelementptr inbounds nuw %struct.manifest_data, ptr %41, i32 0, i32 3
  %43 = load ptr, ptr %42, align 8
  %44 = getelementptr inbounds nuw %struct.manifest_wal_range, ptr %43, i32 0, i32 3
  store ptr %40, ptr %44, align 8
  br label %45

45:                                               ; preds = %39, %35
  %46 = load ptr, ptr %10, align 8
  %47 = load ptr, ptr %9, align 8
  %48 = getelementptr inbounds nuw %struct.manifest_data, ptr %47, i32 0, i32 3
  store ptr %46, ptr %48, align 8
  call void @llvm.lifetime.end.p0(i64 8, ptr %10) #14
  call void @llvm.lifetime.end.p0(i64 8, ptr %9) #14
  ret void
}